Certificate:
    Data:
        Version: 3 (0x2)
        Serial Number:
            b6:22:a3:8c:eb:2d:a1:1b
    Signature Algorithm: sha256WithRSAEncryption
        Issuer: C=US, ST=North Carolina, L=Raleigh, O=Katello, OU=SomeOrgUnit, CN=claintserver.ebc.com
        Validity
            Not Before: Nov  6 00:38:10 2021 GMT
            Not After : Jan 18 00:38:10 2038 GMT
        Subject: C=US, ST=North Carolina, L=Raleigh, O=Katello, OU=SomeOrgUnit, CN=claintserver.ebc.com
        Subject Public Key Info:
            Public Key Algorithm: rsaEncryption
                Public-Key: (4096 bit)
                Modulus:
                    00:d6:98:ce:f9:23:0c:02:f1:ed:92:cd:49:fa:77:
                    62:b6:e2:0d:c9:76:86:39:cd:ea:f1:5e:26:ff:b6:
                    dd:93:74:44:76:96:bd:ce:9e:d1:a0:49:3a:d6:2e:
                    06:63:8b:49:61:51:81:bc:6c:ee:f8:db:84:04:f6:
                    27:6c:9a:79:77:03:c3:68:df:d7:b6:0b:7e:1a:a0:
                    23:0e:44:c4:ad:ec:bf:35:9d:4f:d4:30:08:06:34:
                    02:08:60:05:c9:e3:f2:a0:3f:71:6b:0b:7c:07:68:
                    21:60:02:7e:82:18:df:f1:d4:3c:fa:d3:e9:66:e8:
                    58:78:1c:ce:a0:a0:c8:32:2a:fb:19:20:0b:8b:fd:
                    f0:5c:45:6f:7e:5d:d7:1e:07:9a:ec:c8:ab:0f:4f:
                    84:02:19:5a:ee:4a:7a:2d:30:8b:3f:0a:e9:e7:40:
                    c4:69:97:73:68:39:31:bc:d6:d1:8c:6b:5a:f5:42:
                    6f:14:12:cb:bf:45:2b:46:31:f6:5d:d7:4d:0d:b8:
                    e6:0a:4a:6b:49:94:18:a0:a6:d2:16:a1:a8:39:a7:
                    79:7c:e7:15:a8:1a:0f:77:e3:cf:d9:b4:4d:18:58:
                    0e:91:5a:eb:f3:ee:c0:a3:3d:df:1f:ad:63:d4:c3:
                    bb:b9:94:c6:83:63:7d:24:41:23:a7:9a:7c:1b:2b:
                    00:49:92:41:de:9a:7c:60:04:1f:e2:f4:79:27:43:
                    3c:92:1c:25:08:ea:e0:e1:86:6a:bc:0d:30:6a:72:
                    c4:ad:e9:f8:ca:5c:a5:bd:2c:0f:d5:ed:06:f5:6e:
                    33:a7:1f:f8:1d:a3:99:bd:48:8c:11:99:d3:eb:56:
                    04:83:68:57:5a:f6:c5:f8:8b:59:cf:c8:45:3c:e2:
                    d6:ec:b2:f8:29:e4:a1:50:14:d3:b9:3c:6e:1b:89:
                    d7:8e:f1:bc:d2:1b:4c:eb:3a:a7:d4:0c:76:11:55:
                    6f:aa:ce:60:21:a8:80:9e:82:4a:6a:68:4c:e9:d8:
                    7d:b9:10:19:3e:19:e6:75:47:a6:b2:04:5b:d1:17:
                    c4:c3:23:7b:91:bf:f1:7f:60:a7:63:d1:14:b9:84:
                    58:a5:b6:91:a5:4c:a8:14:2f:8e:1b:46:9a:e1:25:
                    97:d9:d2:fe:b7:99:6e:0b:d4:2d:a5:c3:9b:9f:a4:
                    40:be:e6:a9:2f:de:4a:6d:a0:5d:f5:9e:fc:71:f6:
                    aa:1c:c8:15:04:a9:2d:13:50:f8:5f:36:56:70:32:
                    db:2a:8e:09:fc:e0:fb:22:aa:57:d9:0d:99:0f:58:
                    4e:af:2a:2d:4e:6c:85:3f:91:91:29:54:2c:b7:bb:
                    db:8b:cb:e1:7b:3f:c2:91:76:99:4b:cf:c1:91:89:
                    6e:31:af
                Exponent: 65537 (0x10001)
        X509v3 extensions:
            X509v3 Basic Constraints: 
                CA:TRUE
            X509v3 Key Usage: 
                Digital Signature, Key Encipherment, Certificate Sign, CRL Sign
            X509v3 Extended Key Usage: 
                TLS Web Server Authentication, TLS Web Client Authentication
            Netscape Cert Type: 
                SSL Server, SSL CA
            Netscape Comment: 
                Katello SSL Tool Generated Certificate
            X509v3 Subject Key Identifier: 
                71:9D:1E:40:5D:46:33:03:17:02:EB:78:95:BA:6C:C3:5A:AC:DF:65
            X509v3 Authority Key Identifier: 
                keyid:71:9D:1E:40:5D:46:33:03:17:02:EB:78:95:BA:6C:C3:5A:AC:DF:65
                DirName:/C=US/ST=North Carolina/L=Raleigh/O=Katello/OU=SomeOrgUnit/CN=claintserver.ebc.com
                serial:B6:22:A3:8C:EB:2D:A1:1B

    Signature Algorithm: sha256WithRSAEncryption
         9b:ce:e0:d7:6b:4a:c4:76:d9:8c:05:32:46:4c:6b:c0:cc:cd:
         4f:89:bb:c0:81:01:aa:49:e8:7b:6c:4a:2e:d4:6f:87:60:db:
         2b:eb:09:3e:1a:b2:cb:9a:56:27:20:c2:87:76:79:e1:ee:fe:
         6e:9c:1a:54:4e:5a:e5:5e:32:e2:86:7d:8b:1c:eb:f7:ae:44:
         aa:cc:f7:68:fa:35:81:b6:f5:ef:aa:67:29:8f:a6:37:d0:3f:
         91:ed:34:14:bb:b4:55:01:a8:8b:fc:ab:f2:bb:b5:39:d7:95:
         a5:13:4f:e0:f0:fc:db:30:60:3e:0a:fa:e5:38:af:ca:1f:fc:
         86:c2:e8:26:d7:e7:cb:6c:42:cb:3d:3d:cb:a1:f6:dc:7b:b8:
         5f:b9:c9:a9:49:d6:f1:07:16:15:a9:2c:88:01:c5:e8:78:36:
         c1:25:72:01:19:7a:2d:af:d2:2a:6c:bb:09:5d:60:3b:5e:ef:
         7a:b2:38:17:f4:4f:aa:ac:ef:64:60:fd:04:ff:18:bb:12:17:
         80:20:e3:70:95:b8:b9:cd:4f:be:7d:4a:26:4f:42:6d:84:c5:
         7b:4b:6e:f2:25:c7:40:68:ce:2c:61:0f:ac:64:d3:87:b1:68:
         33:8b:ec:0f:f8:36:55:87:7e:0e:cc:ee:b6:e7:5e:15:6f:78:
         4b:b2:fd:44:20:c6:68:c4:96:ee:e9:ad:9d:5c:14:39:dd:40:
         b0:37:c5:42:06:67:a3:6a:6a:69:e4:31:06:1d:7b:fc:b8:40:
         75:ae:a0:62:38:2f:25:fc:4f:93:64:49:e9:66:5e:f6:09:92:
         a6:56:b7:9b:cf:63:ee:79:e8:7a:dd:3d:3b:4d:0b:03:bf:a0:
         ba:77:41:b3:26:e1:cc:54:95:34:30:43:c7:fe:2e:2d:a7:b1:
         cc:ed:2b:d8:54:6b:fd:f7:9f:d5:9f:7d:d8:a6:e9:60:67:a3:
         d6:20:ee:bf:08:a0:92:a6:68:69:f4:6f:0a:4d:d6:01:8b:18:
         be:53:01:91:e7:31:dc:1a:28:52:c6:8b:99:39:90:c8:c0:8b:
         c5:0f:b3:87:25:00:87:cf:b3:bd:e6:59:83:cb:87:c9:e4:d9:
         e9:39:3f:8f:87:74:b1:7d:0d:84:5d:65:28:38:31:cf:2a:17:
         4f:5a:20:d0:82:48:ae:8a:86:b1:58:98:18:5f:ac:b6:8f:ff:
         c3:04:4b:a6:f6:89:2d:b2:a1:b3:24:e2:7b:e4:4d:5d:58:58:
         59:61:21:1b:4d:28:bc:9a:0e:54:a4:34:27:83:9f:57:50:ca:
         5c:9f:5c:e0:6a:79:b5:a7:46:ee:91:02:20:a1:e1:a2:34:8a:
         6e:b6:72:c3:d9:5a:93:1e
-----BEGIN CERTIFICATE-----
MIIG4DCCBMigAwIBAgIJALYio4zrLaEbMA0GCSqGSIb3DQEBCwUAMH8xCzAJBgNV
BAYTAlVTMRcwFQYDVQQIDA5Ob3J0aCBDYXJvbGluYTEQMA4GA1UEBwwHUmFsZWln
aDEQMA4GA1UECgwHS2F0ZWxsbzEUMBIGA1UECwwLU29tZU9yZ1VuaXQxHTAbBgNV
BAMMFGNsYWludHNlcnZlci5lYmMuY29tMB4XDTIxMTEwNjAwMzgxMFoXDTM4MDEx
ODAwMzgxMFowfzELMAkGA1UEBhMCVVMxFzAVBgNVBAgMDk5vcnRoIENhcm9saW5h
MRAwDgYDVQQHDAdSYWxlaWdoMRAwDgYDVQQKDAdLYXRlbGxvMRQwEgYDVQQLDAtT
b21lT3JnVW5pdDEdMBsGA1UEAwwUY2xhaW50c2VydmVyLmViYy5jb20wggIiMA0G
CSqGSIb3DQEBAQUAA4ICDwAwggIKAoICAQDWmM75IwwC8e2SzUn6d2K24g3JdoY5
zerxXib/tt2TdER2lr3OntGgSTrWLgZji0lhUYG8bO7424QE9idsmnl3A8No39e2
C34aoCMORMSt7L81nU/UMAgGNAIIYAXJ4/KgP3FrC3wHaCFgAn6CGN/x1Dz60+lm
6Fh4HM6goMgyKvsZIAuL/fBcRW9+XdceB5rsyKsPT4QCGVruSnotMIs/CunnQMRp
l3NoOTG81tGMa1r1Qm8UEsu/RStGMfZd100NuOYKSmtJlBigptIWoag5p3l85xWo
Gg9348/ZtE0YWA6RWuvz7sCjPd8frWPUw7u5lMaDY30kQSOnmnwbKwBJkkHemnxg
BB/i9HknQzySHCUI6uDhhmq8DTBqcsSt6fjKXKW9LA/V7Qb1bjOnH/gdo5m9SIwR
mdPrVgSDaFda9sX4i1nPyEU84tbssvgp5KFQFNO5PG4bideO8bzSG0zrOqfUDHYR
VW+qzmAhqICegkpqaEzp2H25EBk+GeZ1R6ayBFvRF8TDI3uRv/F/YKdj0RS5hFil
tpGlTKgUL44bRprhJZfZ0v63mW4L1C2lw5ufpEC+5qkv3kptoF31nvxx9qocyBUE
qS0TUPhfNlZwMtsqjgn84PsiqlfZDZkPWE6vKi1ObIU/kZEpVCy3u9uLy+F7P8KR
dplLz8GRiW4xrwIDAQABo4IBXTCCAVkwDAYDVR0TBAUwAwEB/zALBgNVHQ8EBAMC
AaYwHQYDVR0lBBYwFAYIKwYBBQUHAwEGCCsGAQUFBwMCMBEGCWCGSAGG+EIBAQQE
AwICRDA1BglghkgBhvhCAQ0EKBYmS2F0ZWxsbyBTU0wgVG9vbCBHZW5lcmF0ZWQg
Q2VydGlmaWNhdGUwHQYDVR0OBBYEFHGdHkBdRjMDFwLreJW6bMNarN9lMIGzBgNV
HSMEgaswgaiAFHGdHkBdRjMDFwLreJW6bMNarN9loYGEpIGBMH8xCzAJBgNVBAYT
AlVTMRcwFQYDVQQIDA5Ob3J0aCBDYXJvbGluYTEQMA4GA1UEBwwHUmFsZWlnaDEQ
MA4GA1UECgwHS2F0ZWxsbzEUMBIGA1UECwwLU29tZU9yZ1VuaXQxHTAbBgNVBAMM
FGNsYWludHNlcnZlci5lYmMuY29tggkAtiKjjOstoRswDQYJKoZIhvcNAQELBQAD
ggIBAJvO4NdrSsR22YwFMkZMa8DMzU+Ju8CBAapJ6HtsSi7Ub4dg2yvrCT4assua
Vicgwod2eeHu/m6cGlROWuVeMuKGfYsc6/euRKrM92j6NYG29e+qZymPpjfQP5Ht
NBS7tFUBqIv8q/K7tTnXlaUTT+Dw/NswYD4K+uU4r8of/IbC6CbX58tsQss9Pcuh
9tx7uF+5yalJ1vEHFhWpLIgBxeh4NsElcgEZei2v0ipsuwldYDte73qyOBf0T6qs
72Rg/QT/GLsSF4Ag43CVuLnNT759SiZPQm2ExXtLbvIlx0BozixhD6xk04exaDOL
7A/4NlWHfg7M7rbnXhVveEuy/UQgxmjElu7prZ1cFDndQLA3xUIGZ6NqamnkMQYd
e/y4QHWuoGI4LyX8T5NkSelmXvYJkqZWt5vPY+556HrdPTtNCwO/oLp3QbMm4cxU
lTQwQ8f+Li2nscztK9hUa/33n9Wffdim6WBno9Yg7r8IoJKmaGn0bwpN1gGLGL5T
AZHnMdwaKFLGi5k5kMjAi8UPs4clAIfPs73mWYPLh8nk2ek5P4+HdLF9DYRdZSg4
Mc8qF09aINCCSK6KhrFYmBhfrLaP/8MES6b2iS2yobMk4nvkTV1YWFlhIRtNKLya
DlSkNCeDn1dQylyfXOBqebWnRu6RAiCh4aI0im62csPZWpMe
-----END CERTIFICATE-----
